target datalayout = "e-m:e-p270:32:32-p271:32:32-p272:64:64-i64:64-i128:128-f80:128-n8:16:32:64-S128"
target triple = "x86_64-pc-linux-gnu"

%class.rational = type { %class.mpq }
%class.mpq = type { %class.mpz, %class.mpz }
%class.mpz = type { i32, i8, ptr }
%"class.smt::theory_str" = type { %"class.smt::theory.base", ptr, i8, i8, i32, i8, i8, i8, i8, i8, i8, %class.arith_util, %class.seq_util, i32, i8, %class.ref_vector, ptr, %class.re2automaton, i32, ptr, %class.ref_vector, %class.ptr_vector, %class.ptr_vector, %class.ptr_vector, %class.ptr_vector, %class.ref_vector, %class.ptr_vector, %class.ref_vector, %class.ref_vector, %class.obj_hashtable, %class.obj_hashtable, i32, i32, %"class.std::map", i8, i8, [6 x i8], %class.obj_map, %class.scoped_ptr_vector, %class.obj_ref, %class.obj_hashtable, %class.obj_hashtable, %"class.std::map.10", %class.ref_vector, %"class.smt::theory_str_contain_pair_bool_map_t", %class.obj_map.20, %class.scoped_ptr_vector.25, %class.ptr_vector.26, %class.obj_hashtable, %class.obj_map.28, %class.obj_map.33, %class.obj_hashtable, %class.obj_hashtable, %class.obj_map.38, %class.obj_map.28, %class.obj_map.43, %class.obj_map.43, %class.obj_map.48, %class.obj_map.48, %class.obj_map.48, %class.obj_map.28, %class.obj_pair_map, %class.ref_vector, %class.obj_hashtable, %class.map, i64, i64, i64, i32, [4 x i8], %class.obj_map.56, %class.trail_stack, %class.trail_stack, %class.union_find, %class.ref_vector, %class.ref_vector, %class.obj_map.43, %class.obj_map.63, %class.obj_map.63, %class.obj_map.68, i32, [4 x i8], %class.obj_map.73, %"struct.smt::theory_str::stats", %class.rational, %class.rational, %class.rational }
%"class.smt::theory.base" = type <{ ptr, i32, [4 x i8], ptr, ptr, %class.ptr_vector, %class.svector, i32, i8 }>
%class.svector = type { %class.vector.0 }
%class.vector.0 = type { ptr }
%class.arith_util = type { ptr, ptr }
%class.seq_util = type { ptr, ptr, ptr, i32, [4 x i8], %"class.seq_util::str", %"class.seq_util::rex" }
%"class.seq_util::str" = type <{ ptr, ptr, i32, [4 x i8] }>
%"class.seq_util::rex" = type { ptr, ptr, i32, %class.vector.1, %class.ref_vector, %"struct.seq_util::rex::info", %"struct.seq_util::rex::info" }
%class.vector.1 = type { ptr }
%"struct.seq_util::rex::info" = type { i32, i8, i32, i32 }
%class.re2automaton = type { ptr, [8 x i8], %class.seq_util, %class.scoped_ptr, %class.scoped_ptr.4, %class.scoped_ptr.5 }
%class.scoped_ptr = type { ptr }
%class.scoped_ptr.4 = type { ptr }
%class.scoped_ptr.5 = type { ptr }
%class.ptr_vector = type { %class.vector }
%class.vector = type { ptr }
%"class.std::map" = type { %"class.std::_Rb_tree" }
%"class.std::_Rb_tree" = type { %"struct.std::_Rb_tree<std::pair<expr *, expr *>, std::pair<const std::pair<expr *, expr *>, std::map<int, expr *>>, std::_Select1st<std::pair<const std::pair<expr *, expr *>, std::map<int, expr *>>>, std::less<std::pair<expr *, expr *>>>::_Rb_tree_impl" }
%"struct.std::_Rb_tree<std::pair<expr *, expr *>, std::pair<const std::pair<expr *, expr *>, std::map<int, expr *>>, std::_Select1st<std::pair<const std::pair<expr *, expr *>, std::map<int, expr *>>>, std::less<std::pair<expr *, expr *>>>::_Rb_tree_impl" = type { [8 x i8], %"struct.std::_Rb_tree_header" }
%"struct.std::_Rb_tree_header" = type { %"struct.std::_Rb_tree_node_base", i64 }
%"struct.std::_Rb_tree_node_base" = type { i32, ptr, ptr, ptr }
%class.obj_map = type { %class.core_hashtable.6 }
%class.core_hashtable.6 = type <{ ptr, i32, i32, i32, [4 x i8] }>
%class.scoped_ptr_vector = type { %class.ptr_vector.8 }
%class.ptr_vector.8 = type { %class.vector.9 }
%class.vector.9 = type { ptr }
%class.obj_ref = type { ptr, ptr }
%"class.std::map.10" = type { %"class.std::_Rb_tree.11" }
%"class.std::_Rb_tree.11" = type { %"struct.std::_Rb_tree<int, std::pair<const int, obj_hashtable<expr>>, std::_Select1st<std::pair<const int, obj_hashtable<expr>>>, std::less<int>>::_Rb_tree_impl" }
%"struct.std::_Rb_tree<int, std::pair<const int, obj_hashtable<expr>>, std::_Select1st<std::pair<const int, obj_hashtable<expr>>>, std::less<int>>::_Rb_tree_impl" = type { [8 x i8], %"struct.std::_Rb_tree_header" }
%"class.smt::theory_str_contain_pair_bool_map_t" = type { %class.obj_pair_map }
%class.obj_map.20 = type { %class.core_hashtable.21 }
%class.core_hashtable.21 = type <{ ptr, i32, i32, i32, [4 x i8] }>
%class.scoped_ptr_vector.25 = type { %class.ptr_vector.26 }
%class.ptr_vector.26 = type { %class.vector.27 }
%class.vector.27 = type { ptr }
%class.obj_map.33 = type { %class.core_hashtable.34 }
%class.core_hashtable.34 = type <{ ptr, i32, i32, i32, [4 x i8] }>
%class.obj_map.38 = type { %class.core_hashtable.39 }
%class.core_hashtable.39 = type <{ ptr, i32, i32, i32, [4 x i8] }>
%class.obj_map.48 = type { %class.core_hashtable.49 }
%class.core_hashtable.49 = type <{ ptr, i32, i32, i32, [4 x i8] }>
%class.obj_map.28 = type { %class.core_hashtable.29 }
%class.core_hashtable.29 = type <{ ptr, i32, i32, i32, [4 x i8] }>
%class.obj_pair_map = type { %class.core_hashtable.16 }
%class.core_hashtable.16 = type <{ ptr, i32, i32, i32, [4 x i8] }>
%class.obj_hashtable = type { %class.core_hashtable.base, [4 x i8] }
%class.core_hashtable.base = type <{ ptr, i32, i32, i32 }>
%class.map = type { %class.table2map }
%class.table2map = type { %class.core_hashtable.53 }
%class.core_hashtable.53 = type <{ ptr, i32, i32, i32, [4 x i8] }>
%class.obj_map.56 = type { %class.core_hashtable.57 }
%class.core_hashtable.57 = type <{ ptr, i32, i32, i32, [4 x i8] }>
%class.trail_stack = type { %class.ptr_vector.61, %class.svector, %class.region }
%class.ptr_vector.61 = type { %class.vector.62 }
%class.vector.62 = type { ptr }
%class.region = type { ptr, ptr, ptr, ptr, ptr }
%class.union_find = type { ptr, ptr, %class.svector, %class.svector, %class.svector, %"class.union_find<smt::theory_str>::mk_var_trail" }
%"class.union_find<smt::theory_str>::mk_var_trail" = type { %class.trail, ptr }
%class.trail = type { ptr }
%class.ref_vector = type { %class.ref_vector_core }
%class.ref_vector_core = type { %class.ref_manager_wrapper, %class.ptr_vector.2 }
%class.ref_manager_wrapper = type { ptr }
%class.ptr_vector.2 = type { %class.vector.3 }
%class.vector.3 = type { ptr }
%class.obj_map.43 = type { %class.core_hashtable.44 }
%class.core_hashtable.44 = type <{ ptr, i32, i32, i32, [4 x i8] }>
%class.obj_map.63 = type { %class.core_hashtable.64 }
%class.core_hashtable.64 = type <{ ptr, i32, i32, i32, [4 x i8] }>
%class.obj_map.68 = type { %class.core_hashtable.69 }
%class.core_hashtable.69 = type <{ ptr, i32, i32, i32, [4 x i8] }>
%class.obj_map.73 = type { %class.core_hashtable.74 }
%class.core_hashtable.74 = type <{ ptr, i32, i32, i32, [4 x i8] }>
%"struct.smt::theory_str::stats" = type { i32, i32, i32, i32, i32, i32 }

; Function Attrs: mustprogress uwtable
define linkonce_odr hidden noundef ptr @_ZNK8seq_util3str9mk_lengthEP4expr(ptr noundef nonnull align 8 dereferenceable(20) %0, ptr noundef %1) #6 comdat align 2 {
  %3 = alloca ptr, align 8
  %4 = alloca ptr, align 8
  store ptr %0, ptr %3, align 8, !tbaa !805
  store ptr %1, ptr %4, align 8, !tbaa !262
  %5 = load ptr, ptr %3, align 8
  %6 = getelementptr inbounds nuw %"class.seq_util::str", ptr %5, i32 0, i32 1
  %7 = load ptr, ptr %6, align 8, !tbaa !809
  %8 = getelementptr inbounds nuw %"class.seq_util::str", ptr %5, i32 0, i32 2
  %9 = load i32, ptr %8, align 8, !tbaa !807
  %10 = call noundef ptr @_ZN11ast_manager6mk_appEiijPKP4expr(ptr noundef nonnull align 8 dereferenceable(976) %7, i32 noundef %9, i32 noundef 12, i32 noundef 1, ptr noundef %4)
  ret ptr %10
}

; Function Attrs: mustprogress uwtable
define hidden noundef ptr @_ZN3smt10theory_str9mk_strlenEP4expr(ptr noundef nonnull align 8 dereferenceable(1800) %0, ptr noundef %1) #6 align 2 {
  %3 = alloca ptr, align 8
  %4 = alloca ptr, align 8
  store ptr %0, ptr %3, align 8, !tbaa !28
  store ptr %1, ptr %4, align 8, !tbaa !262
  %5 = load ptr, ptr %3, align 8
  %6 = getelementptr inbounds nuw %"class.smt::theory_str", ptr %5, i32 0, i32 12
  %7 = getelementptr inbounds nuw %class.seq_util, ptr %6, i32 0, i32 5
  %8 = load ptr, ptr %4, align 8, !tbaa !262
  %9 = call noundef ptr @_ZNK8seq_util3str9mk_lengthEP4expr(ptr noundef nonnull align 8 dereferenceable(20) %7, ptr noundef %8)
  ret ptr %9
}