; Function Attrs: mustprogress uwtable
define hidden noundef ptr @_ZN3smt10theory_str9mk_strlenEP4expr(ptr noundef nonnull readonly align 8 captures(none) dereferenceable(1800) %0, ptr noundef %1) local_unnamed_addr #4 align 2 {
  %3 = alloca ptr, align 8
  call void @llvm.lifetime.start.p0(i64 8, ptr nonnull %3)
  store ptr %1, ptr %3, align 8, !tbaa !337
  %4 = getelementptr inbounds nuw i8, ptr %0, i64 136
  %5 = load ptr, ptr %4, align 8, !tbaa !871
  %6 = getelementptr inbounds nuw i8, ptr %0, i64 144
  %7 = load i32, ptr %6, align 8, !tbaa !164
  %8 = call noundef ptr @_ZN11ast_manager6mk_appEiijPKP4expr(ptr noundef nonnull align 8 dereferenceable(976) %5, i32 noundef %7, i32 noundef 12, i32 noundef 1, ptr noundef nonnull %3)
  call void @llvm.lifetime.end.p0(i64 8, ptr nonnull %3)
  ret ptr %8
}